

Microchip Technology PIC LITE Macro Assembler V1.31 build 56723 
                                                                                               Sun Jun 22 01:28:54 2014

Microchip Technology Omniscient Code Generator (Lite mode) build 56723
     1                           	processor	16F690
     2                           	opt	pw 120
     3                           	opt	lm
     4                           	psect	idataBANK0,global,class=CODE,delta=2
     5                           	psect	cinit,global,class=CODE,merge=1,delta=2
     6                           	psect	bssBANK0,global,class=BANK0,space=1,delta=1
     7                           	psect	dataBANK0,global,class=BANK0,space=1,delta=1
     8                           	psect	inittext,global,class=CODE,delta=2
     9                           	psect	cstackCOMMON,global,class=COMMON,space=1,delta=1
    10                           	psect	cstackBANK0,global,class=BANK0,space=1,delta=1
    11                           	psect	maintext,global,class=CODE,split=1,delta=2
    12                           	psect	text1,local,class=CODE,merge=1,delta=2
    13                           	psect	text2,local,class=CODE,merge=1,delta=2
    14                           	psect	text3,local,class=CODE,merge=1,delta=2
    15                           	psect	text4,local,class=CODE,merge=1,delta=2
    16                           	psect	intentry,global,class=CODE,delta=2
    17                           	psect	text5,local,class=CODE,merge=1,delta=2
    18                           	psect	text6,local,class=CODE,merge=1,delta=2
    19                           	dabs	1,0x7E,2
    20  0000                     	;# 
    21  0001                     	;# 
    22  0002                     	;# 
    23  0003                     	;# 
    24  0004                     	;# 
    25  0005                     	;# 
    26  0006                     	;# 
    27  0007                     	;# 
    28  000A                     	;# 
    29  000B                     	;# 
    30  000C                     	;# 
    31  000D                     	;# 
    32  000E                     	;# 
    33  000E                     	;# 
    34  000F                     	;# 
    35  0010                     	;# 
    36  0011                     	;# 
    37  0012                     	;# 
    38  0013                     	;# 
    39  0014                     	;# 
    40  0015                     	;# 
    41  0015                     	;# 
    42  0016                     	;# 
    43  0017                     	;# 
    44  0018                     	;# 
    45  0019                     	;# 
    46  001A                     	;# 
    47  001C                     	;# 
    48  001D                     	;# 
    49  001E                     	;# 
    50  001F                     	;# 
    51  0081                     	;# 
    52  0085                     	;# 
    53  0086                     	;# 
    54  0087                     	;# 
    55  008C                     	;# 
    56  008D                     	;# 
    57  008E                     	;# 
    58  008F                     	;# 
    59  0090                     	;# 
    60  0092                     	;# 
    61  0093                     	;# 
    62  0093                     	;# 
    63  0093                     	;# 
    64  0094                     	;# 
    65  0095                     	;# 
    66  0095                     	;# 
    67  0096                     	;# 
    68  0096                     	;# 
    69  0097                     	;# 
    70  0098                     	;# 
    71  0099                     	;# 
    72  009A                     	;# 
    73  009B                     	;# 
    74  009E                     	;# 
    75  009F                     	;# 
    76  010C                     	;# 
    77  010C                     	;# 
    78  010D                     	;# 
    79  010E                     	;# 
    80  010F                     	;# 
    81  0115                     	;# 
    82  0116                     	;# 
    83  0118                     	;# 
    84  0119                     	;# 
    85  011A                     	;# 
    86  011B                     	;# 
    87  011E                     	;# 
    88  011F                     	;# 
    89  018C                     	;# 
    90  018D                     	;# 
    91  019D                     	;# 
    92  019E                     	;# 
    93                           
    94                           	psect	idataBANK0
    95  0271                     __pidataBANK0:	
    96                           
    97                           ;initializer for _characters
    98  0271  34CF               	retlw	207
    99  0272  340C               	retlw	12
   100  0273  34AB               	retlw	171
   101  0274  34AE               	retlw	174
   102  0275  346C               	retlw	108
   103  0276  34E6               	retlw	230
   104  0277  34E7               	retlw	231
   105  0278  34CC               	retlw	204
   106  0279  34EF               	retlw	239
   107  027A  34EE               	retlw	238
   108  027B  34ED               	retlw	237
   109  027C  3467               	retlw	103
   110  027D  3423               	retlw	35
   111  027E  342F               	retlw	47
   112  027F  34E3               	retlw	227
   113  0280  34E1               	retlw	225
   114  0013                     _SSPBUF	set	19
   115  0014                     _SSPCON	set	20
   116  005F                     _GIE	set	95
   117  005B                     _RABIE	set	91
   118  0058                     _RABIF	set	88
   119  0038                     _RC0	set	56
   120  0039                     _RC1	set	57
   121  003A                     _RC2	set	58
   122  00A5                     _SSPEN	set	165
   123  0094                     _SSPSTAT	set	148
   124  0094                     _SSPSTATbits	set	148
   125  0085                     _TRISAbits	set	133
   126  0086                     _TRISBbits	set	134
   127  0087                     _TRISCbits	set	135
   128  040E                     _INTEDG	set	1038
   129  04B2                     _IOCA2	set	1202
   130  011E                     _ANSEL	set	286
   131  011F                     _ANSELH	set	287
   132                           
   133                           ; #config settings
   134  0000                     
   135                           	psect	cinit
   136  0013                     start_initialization:	
   137  0013                     __initialization:	
   138                           
   139                           ; Clear objects allocated to BANK0
   140  0013  01D0               	clrf	__pbssBANK0& (0+127)
   141  0014  01D1               	clrf	(__pbssBANK0+1)& (0+127)
   142  0015  01D2               	clrf	(__pbssBANK0+2)& (0+127)
   143  0016  01D3               	clrf	(__pbssBANK0+3)& (0+127)
   144  0017  01D4               	clrf	(__pbssBANK0+4)& (0+127)
   145  0018  01D5               	clrf	(__pbssBANK0+5)& (0+127)
   146  0019  01D6               	clrf	(__pbssBANK0+6)& (0+127)
   147  001A  01D7               	clrf	(__pbssBANK0+7)& (0+127)
   148                           
   149                           ; Initialize objects allocated to BANK0
   150  001B  1383               	bcf	3,7	;select IRP bank0
   151  001C  3050               	movlw	low (__pdataBANK0+16)
   152  001D  00FD               	movwf	btemp+-1
   153  001E  3002               	movlw	high __pidataBANK0
   154  001F  00FE               	movwf	btemp
   155  0020  3071               	movlw	low __pidataBANK0
   156  0021  00FF               	movwf	btemp+1
   157  0022  3040               	movlw	low __pdataBANK0
   158  0023  0084               	movwf	4
   159  0024  118A  2285         	fcall	init_ram0
   160  0026                     end_of_initialization:	
   161                           ;End of C runtime variable initialization code
   162                           
   163  0026                     __end_of__initialization:	
   164  0026  0183               	clrf	3
   165  0027  118A  2829         	ljmp	_main	;jump to C main() function
   166                           
   167                           	psect	bssBANK0
   168  0050                     __pbssBANK0:	
   169  0050                     _ringbuffer:	
   170  0050                     	ds	6
   171  0056                     _maxbytes:	
   172  0056                     	ds	1
   173  0057                     _ringbufferpos:	
   174  0057                     	ds	1
   175                           
   176                           	psect	dataBANK0
   177  0040                     __pdataBANK0:	
   178  0040                     _characters:	
   179  0040                     	ds	16
   180                           
   181                           	psect	inittext
   182  0281                     init_fetch0:	
   183                           ;	Called with low address in FSR and high address in W
   184                           
   185  0281  087E               	movf	126,w
   186  0282  008A               	movwf	10
   187  0283  087F               	movf	127,w
   188  0284  0082               	movwf	2
   189  0285                     init_ram0:	
   190                           ;Called with:
   191                           ;	high address of idata address in btemp 
   192                           ;	low address of idata address in btemp+1 
   193                           ;	low address of data in FSR
   194                           ;	high address + 1 of data in btemp-1
   195                           
   196  0285  2281  118A         	fcall	init_fetch0
   197  0287  0080               	movwf	0
   198  0288  0A84               	incf	4,f
   199  0289  0804               	movf	4,w
   200  028A  067D               	xorwf	125,w
   201  028B  1903               	btfsc	3,2
   202  028C  3400               	retlw	0
   203  028D  0AFF               	incf	127,f
   204  028E  1903               	btfsc	3,2
   205  028F  0AFE               	incf	126,f
   206  0290  2A85               	goto	init_ram0
   207                           
   208                           	psect	cstackCOMMON
   209  0070                     __pcstackCOMMON:	
   210  0070                     ?_displayChar:	
   211  0070                     ?_ISR:	
   212                           ; 0 bytes @ 0x0
   213                           
   214  0070                     ?_main:	
   215                           ; 0 bytes @ 0x0
   216                           
   217  0070                     ?i1_delayms:	
   218                           ; 0 bytes @ 0x0
   219                           
   220  0070                     i1delayms@ms:	
   221                           ; 0 bytes @ 0x0
   222                           
   223                           
   224                           ; 2 bytes @ 0x0
   225  0070                     	ds	2
   226  0072                     ??i1_delayms:	
   227  0072                     i1delayms@waitedms:	
   228                           ; 0 bytes @ 0x2
   229                           
   230                           
   231                           ; 2 bytes @ 0x2
   232  0072                     	ds	2
   233  0074                     i1delayms@cycles:	
   234                           
   235                           ; 2 bytes @ 0x4
   236  0074                     	ds	2
   237  0076                     ?i1_spi_w:	
   238  0076                     i1spi_w@data:	
   239                           ; 2 bytes @ 0x6
   240                           
   241                           
   242                           ; 2 bytes @ 0x6
   243  0076                     	ds	2
   244  0078                     ??i1_spi_w:	
   245                           
   246                           ; 0 bytes @ 0x8
   247  0078                     	ds	4
   248                           
   249                           	psect	cstackBANK0
   250  0020                     __pcstackBANK0:	
   251  0020                     i1spi_w@ret1:	
   252                           
   253                           ; 1 bytes @ 0x0
   254  0020                     	ds	1
   255  0021                     i1spi_w@ret2:	
   256                           
   257                           ; 1 bytes @ 0x1
   258  0021                     	ds	1
   259  0022                     i1spi_w@byte1:	
   260                           
   261                           ; 1 bytes @ 0x2
   262  0022                     	ds	1
   263  0023                     i1spi_w@byte2:	
   264                           
   265                           ; 1 bytes @ 0x3
   266  0023                     	ds	1
   267  0024                     ??_ISR:	
   268                           
   269                           ; 0 bytes @ 0x4
   270  0024                     	ds	5
   271  0029                     ISR@status:	
   272                           
   273                           ; 2 bytes @ 0x9
   274  0029                     	ds	2
   275  002B                     ISR@data1:	
   276                           
   277                           ; 2 bytes @ 0xB
   278  002B                     	ds	2
   279  002D                     ?_delayms:	
   280  002D                     ??_displayChar:	
   281                           ; 0 bytes @ 0xD
   282                           
   283  002D                     delayms@ms:	
   284                           ; 0 bytes @ 0xD
   285                           
   286                           
   287                           ; 2 bytes @ 0xD
   288  002D                     	ds	2
   289  002F                     ??_delayms:	
   290  002F                     displayChar@hnib:	
   291                           ; 0 bytes @ 0xF
   292                           
   293  002F                     delayms@waitedms:	
   294                           ; 1 bytes @ 0xF
   295                           
   296                           
   297                           ; 2 bytes @ 0xF
   298  002F                     	ds	1
   299  0030                     displayChar@lnib:	
   300                           
   301                           ; 1 bytes @ 0x10
   302  0030                     	ds	1
   303  0031                     displayChar@data:	
   304  0031                     delayms@cycles:	
   305                           ; 1 bytes @ 0x11
   306                           
   307                           
   308                           ; 2 bytes @ 0x11
   309  0031                     	ds	2
   310  0033                     ?_spi_w:	
   311  0033                     spi_w@data:	
   312                           ; 2 bytes @ 0x13
   313                           
   314                           
   315                           ; 2 bytes @ 0x13
   316  0033                     	ds	2
   317  0035                     ??_spi_w:	
   318                           
   319                           ; 0 bytes @ 0x15
   320  0035                     	ds	4
   321  0039                     spi_w@ret1:	
   322                           
   323                           ; 1 bytes @ 0x19
   324  0039                     	ds	1
   325  003A                     spi_w@ret2:	
   326                           
   327                           ; 1 bytes @ 0x1A
   328  003A                     	ds	1
   329  003B                     spi_w@byte1:	
   330                           
   331                           ; 1 bytes @ 0x1B
   332  003B                     	ds	1
   333  003C                     spi_w@byte2:	
   334                           
   335                           ; 1 bytes @ 0x1C
   336  003C                     	ds	1
   337  003D                     ??_main:	
   338                           
   339                           ; 0 bytes @ 0x1D
   340  003D                     	ds	1
   341  003E                     main@answer:	
   342                           
   343                           ; 1 bytes @ 0x1E
   344  003E                     	ds	1
   345  003F                     main@i:	
   346                           
   347                           ; 1 bytes @ 0x1F
   348  003F                     	ds	1
   349                           
   350                           	psect	maintext
   351  0029                     __pmaintext:	
   352 ;;
   353 ;;Main: autosize = 0, tempsize = 1, incstack = 0, save=0
   354 ;;
   355 ;; *************** function _main *****************
   356 ;; Defined at:
   357 ;;		line 165 in file "main.c"
   358 ;; Parameters:    Size  Location     Type
   359 ;;		None
   360 ;; Auto vars:     Size  Location     Type
   361 ;;  i               1   31[BANK0 ] unsigned char 
   362 ;;  answer          1   30[BANK0 ] unsigned char 
   363 ;; Return value:  Size  Location     Type
   364 ;;		None               void
   365 ;; Registers used:
   366 ;;		wreg, fsr0l, fsr0h, status,2, status,0, btemp+1, pclath, cstack
   367 ;; Tracked objects:
   368 ;;		On entry : 17F/0
   369 ;;		On exit  : 0/0
   370 ;;		Unchanged: 0/0
   371 ;; Data sizes:     COMMON   BANK0   BANK1   BANK2
   372 ;;      Params:         0       0       0       0
   373 ;;      Locals:         0       2       0       0
   374 ;;      Temps:          0       1       0       0
   375 ;;      Totals:         0       3       0       0
   376 ;;Total ram usage:        3 bytes
   377 ;; Hardware stack levels required when called:    5
   378 ;; This function calls:
   379 ;;		_delayms
   380 ;;		_displayChar
   381 ;;		_spi_w
   382 ;; This function is called by:
   383 ;;		Startup code after reset
   384 ;; This function uses a non-reentrant model
   385 ;;
   386                           
   387                           
   388                           ;psect for function _main
   389  0029                     _main:	
   390                           
   391                           ;main.c: 168: ANSELH = 0X0;
   392                           
   393                           ;incstack = 0
   394                           ; Regs used in _main: [wreg-fsr0h+status,2+status,0+btemp+1+pclath+cstack]
   395  0029  1283               	bcf	3,5	;RP0=0, select bank2
   396  002A  1703               	bsf	3,6	;RP1=1, select bank2
   397  002B  019F               	clrf	31	;volatile
   398                           
   399                           ;main.c: 169: ANSEL = 0X0;
   400  002C  019E               	clrf	30	;volatile
   401                           
   402                           ;main.c: 171: TRISBbits.TRISB6 = 0;
   403  002D  1683               	bsf	3,5	;RP0=1, select bank1
   404  002E  1303               	bcf	3,6	;RP1=0, select bank1
   405  002F  1306               	bcf	6,6	;volatile
   406                           
   407                           ;main.c: 172: TRISBbits.TRISB4 = 1;
   408  0030  1606               	bsf	6,4	;volatile
   409                           
   410                           ;main.c: 173: TRISCbits.TRISC7 = 0;
   411  0031  1387               	bcf	7,7	;volatile
   412                           
   413                           ;main.c: 174: TRISCbits.TRISC2 = 0;
   414  0032  1107               	bcf	7,2	;volatile
   415                           
   416                           ;main.c: 175: TRISCbits.TRISC1 = 0;
   417  0033  1087               	bcf	7,1	;volatile
   418                           
   419                           ;main.c: 176: TRISCbits.TRISC0 = 0;
   420  0034  1007               	bcf	7,0	;volatile
   421                           
   422                           ;main.c: 182: SSPEN = 0;
   423  0035  1283               	bcf	3,5	;RP0=0, select bank0
   424  0036  1303               	bcf	3,6	;RP1=0, select bank0
   425  0037  1294               	bcf	20,5	;volatile
   426                           
   427                           ;main.c: 183: SSPSTAT= 0b01000000;
   428  0038  3040               	movlw	64
   429  0039  1683               	bsf	3,5	;RP0=1, select bank1
   430  003A  1303               	bcf	3,6	;RP1=0, select bank1
   431  003B  0094               	movwf	20	;volatile
   432                           
   433                           ;main.c: 185: SSPCON = 0b00000010;
   434  003C  3002               	movlw	2
   435  003D  1283               	bcf	3,5	;RP0=0, select bank0
   436  003E  1303               	bcf	3,6	;RP1=0, select bank0
   437  003F  0094               	movwf	20	;volatile
   438                           
   439                           ;main.c: 186: SSPEN = 1;
   440  0040  1694               	bsf	20,5	;volatile
   441                           
   442                           ;main.c: 187: SSPSTATbits.BF = 1;
   443  0041  1683               	bsf	3,5	;RP0=1, select bank1
   444  0042  1303               	bcf	3,6	;RP1=0, select bank1
   445  0043  1414               	bsf	20,0	;volatile
   446                           
   447                           ;main.c: 190: TRISAbits.TRISA2 = 1;
   448  0044  1505               	bsf	5,2	;volatile
   449                           
   450                           ;main.c: 191: IOCA2 = 1;
   451  0045  1516               	bsf	22,2	;volatile
   452                           
   453                           ;main.c: 198: RABIE = 1;
   454  0046  158B               	bsf	11,3	;volatile
   455                           
   456                           ;main.c: 199: INTEDG = 0;
   457  0047  1301               	bcf	1,6	;volatile
   458                           
   459                           ;main.c: 200: GIE=1;
   460  0048  178B               	bsf	11,7	;volatile
   461                           
   462                           ;main.c: 203: RC2 = 1;
   463  0049  1283               	bcf	3,5	;RP0=0, select bank0
   464  004A  1303               	bcf	3,6	;RP1=0, select bank0
   465  004B  1507               	bsf	7,2	;volatile
   466                           
   467                           ;main.c: 204: RC0 = 0;
   468  004C  1007               	bcf	7,0	;volatile
   469                           
   470                           ;main.c: 205: RC1 = 0;
   471  004D  1087               	bcf	7,1	;volatile
   472                           
   473                           ;main.c: 207: uchar answer;
   474                           ;main.c: 209: spi_w(0x80D8);
   475  004E  30D8               	movlw	216
   476  004F  00B3               	movwf	spi_w@data
   477  0050  3080               	movlw	128
   478  0051  00B4               	movwf	spi_w@data+1
   479  0052  118A  2163  118A   	fcall	_spi_w
   480                           
   481                           ;main.c: 210: spi_w(0x82D8);
   482  0055  30D8               	movlw	216
   483  0056  1283               	bcf	3,5	;RP0=0, select bank0
   484  0057  1303               	bcf	3,6	;RP1=0, select bank0
   485  0058  00B3               	movwf	spi_w@data
   486  0059  3082               	movlw	130
   487  005A  00B4               	movwf	spi_w@data+1
   488  005B  118A  2163  118A   	fcall	_spi_w
   489                           
   490                           ;main.c: 211: spi_w(0xA640);
   491  005E  3040               	movlw	64
   492  005F  1283               	bcf	3,5	;RP0=0, select bank0
   493  0060  1303               	bcf	3,6	;RP1=0, select bank0
   494  0061  00B3               	movwf	spi_w@data
   495  0062  30A6               	movlw	166
   496  0063  00B4               	movwf	spi_w@data+1
   497  0064  118A  2163  118A   	fcall	_spi_w
   498                           
   499                           ;main.c: 212: spi_w(0xC6A0);
   500  0067  30A0               	movlw	160
   501  0068  1283               	bcf	3,5	;RP0=0, select bank0
   502  0069  1303               	bcf	3,6	;RP1=0, select bank0
   503  006A  00B3               	movwf	spi_w@data
   504  006B  30C6               	movlw	198
   505  006C  00B4               	movwf	spi_w@data+1
   506  006D  118A  2163  118A   	fcall	_spi_w
   507                           
   508                           ;main.c: 213: spi_w(0x94C0);
   509  0070  30C0               	movlw	192
   510  0071  1283               	bcf	3,5	;RP0=0, select bank0
   511  0072  1303               	bcf	3,6	;RP1=0, select bank0
   512  0073  00B3               	movwf	spi_w@data
   513  0074  3094               	movlw	148
   514  0075  00B4               	movwf	spi_w@data+1
   515  0076  118A  2163  118A   	fcall	_spi_w
   516                           
   517                           ;main.c: 214: spi_w(0xC2AC);
   518  0079  30AC               	movlw	172
   519  007A  1283               	bcf	3,5	;RP0=0, select bank0
   520  007B  1303               	bcf	3,6	;RP1=0, select bank0
   521  007C  00B3               	movwf	spi_w@data
   522  007D  30C2               	movlw	194
   523  007E  00B4               	movwf	spi_w@data+1
   524  007F  118A  2163  118A   	fcall	_spi_w
   525                           
   526                           ;main.c: 215: spi_w(0xCC76);
   527  0082  3076               	movlw	118
   528  0083  1283               	bcf	3,5	;RP0=0, select bank0
   529  0084  1303               	bcf	3,6	;RP1=0, select bank0
   530  0085  00B3               	movwf	spi_w@data
   531  0086  30CC               	movlw	204
   532  0087  00B4               	movwf	spi_w@data+1
   533  0088  118A  2163  118A   	fcall	_spi_w
   534                           
   535                           ;main.c: 216: spi_w(0xCA83);
   536  008B  3083               	movlw	131
   537  008C  1283               	bcf	3,5	;RP0=0, select bank0
   538  008D  1303               	bcf	3,6	;RP1=0, select bank0
   539  008E  00B3               	movwf	spi_w@data
   540  008F  30CA               	movlw	202
   541  0090  00B4               	movwf	spi_w@data+1
   542  0091  118A  2163  118A   	fcall	_spi_w
   543                           
   544                           ;main.c: 217: spi_w(0xCED4);
   545  0094  30D4               	movlw	212
   546  0095  1283               	bcf	3,5	;RP0=0, select bank0
   547  0096  1303               	bcf	3,6	;RP1=0, select bank0
   548  0097  00B3               	movwf	spi_w@data
   549  0098  30CE               	movlw	206
   550  0099  00B4               	movwf	spi_w@data+1
   551  009A  118A  2163  118A   	fcall	_spi_w
   552                           
   553                           ;main.c: 218: spi_w(0xC487);
   554  009D  3087               	movlw	135
   555  009E  1283               	bcf	3,5	;RP0=0, select bank0
   556  009F  1303               	bcf	3,6	;RP1=0, select bank0
   557  00A0  00B3               	movwf	spi_w@data
   558  00A1  30C4               	movlw	196
   559  00A2  00B4               	movwf	spi_w@data+1
   560  00A3  118A  2163  118A   	fcall	_spi_w
   561                           
   562                           ;main.c: 225: spi_w(0x9820);
   563  00A6  3020               	movlw	32
   564  00A7  1283               	bcf	3,5	;RP0=0, select bank0
   565  00A8  1303               	bcf	3,6	;RP1=0, select bank0
   566  00A9  00B3               	movwf	spi_w@data
   567  00AA  3098               	movlw	152
   568  00AB  00B4               	movwf	spi_w@data+1
   569  00AC  118A  2163  118A   	fcall	_spi_w
   570                           
   571                           ;main.c: 228: spi_w(0xE000);
   572  00AF  3000               	movlw	0
   573  00B0  1283               	bcf	3,5	;RP0=0, select bank0
   574  00B1  1303               	bcf	3,6	;RP1=0, select bank0
   575  00B2  00B3               	movwf	spi_w@data
   576  00B3  30E0               	movlw	224
   577  00B4  00B4               	movwf	spi_w@data+1
   578  00B5  118A  2163  118A   	fcall	_spi_w
   579                           
   580                           ;main.c: 230: spi_w(0xC800);
   581  00B8  3000               	movlw	0
   582  00B9  1283               	bcf	3,5	;RP0=0, select bank0
   583  00BA  1303               	bcf	3,6	;RP1=0, select bank0
   584  00BB  00B3               	movwf	spi_w@data
   585  00BC  30C8               	movlw	200
   586  00BD  00B4               	movwf	spi_w@data+1
   587  00BE  118A  2163  118A   	fcall	_spi_w
   588                           
   589                           ;main.c: 231: spi_w(0xC000);
   590  00C1  3000               	movlw	0
   591  00C2  1283               	bcf	3,5	;RP0=0, select bank0
   592  00C3  1303               	bcf	3,6	;RP1=0, select bank0
   593  00C4  00B3               	movwf	spi_w@data
   594  00C5  30C0               	movlw	192
   595  00C6  00B4               	movwf	spi_w@data+1
   596  00C7  118A  2163  118A   	fcall	_spi_w
   597                           
   598                           ;main.c: 235: answer = spi_w(0x0000);
   599  00CA  3000               	movlw	0
   600  00CB  1283               	bcf	3,5	;RP0=0, select bank0
   601  00CC  1303               	bcf	3,6	;RP1=0, select bank0
   602  00CD  00B3               	movwf	spi_w@data
   603  00CE  3000               	movlw	0
   604  00CF  00B4               	movwf	spi_w@data+1
   605  00D0  118A  2163  118A   	fcall	_spi_w
   606  00D3  1283               	bcf	3,5	;RP0=0, select bank0
   607  00D4  1303               	bcf	3,6	;RP1=0, select bank0
   608  00D5  0833               	movf	?_spi_w,w
   609  00D6  00BD               	movwf	??_main
   610  00D7  083D               	movf	??_main,w
   611  00D8  00BE               	movwf	main@answer
   612                           
   613                           ;main.c: 236: displayChar(answer);
   614  00D9  083E               	movf	main@answer,w
   615  00DA  118A  21ED  118A   	fcall	_displayChar
   616  00DD                     l953:	
   617                           ;main.c: 239: while(1)
   618                           
   619                           
   620                           ;main.c: 240: {
   621                           ;main.c: 256: RC1 = 1;
   622  00DD  1283               	bcf	3,5	;RP0=0, select bank0
   623  00DE  1303               	bcf	3,6	;RP1=0, select bank0
   624  00DF  1487               	bsf	7,1	;volatile
   625                           
   626                           ;main.c: 257: displayChar(maxbytes);
   627  00E0  0856               	movf	_maxbytes,w
   628  00E1  118A  21ED  118A   	fcall	_displayChar
   629                           
   630                           ;main.c: 258: delayms(700);
   631  00E4  30BC               	movlw	188
   632  00E5  1283               	bcf	3,5	;RP0=0, select bank0
   633  00E6  1303               	bcf	3,6	;RP1=0, select bank0
   634  00E7  00AD               	movwf	delayms@ms
   635  00E8  3002               	movlw	2
   636  00E9  00AE               	movwf	delayms@ms+1
   637  00EA  118A  221D  118A   	fcall	_delayms
   638                           
   639                           ;main.c: 259: RC1 = 0;
   640  00ED  1283               	bcf	3,5	;RP0=0, select bank0
   641  00EE  1303               	bcf	3,6	;RP1=0, select bank0
   642  00EF  1087               	bcf	7,1	;volatile
   643                           
   644                           ;main.c: 261: for (uchar i = 0; i < 6; i++) {
   645  00F0  01BF               	clrf	main@i
   646  00F1                     L1:	
   647  00F1  3006               	movlw	6
   648  00F2  023F               	subwf	main@i,w
   649  00F3  1803               	btfsc	3,0
   650  00F4  28DD               	goto	l953
   651                           
   652                           ;main.c: 262: displayChar(ringbuffer[i]);
   653  00F5  083F               	movf	main@i,w
   654  00F6  3E50               	addlw	_ringbuffer& (0+255)
   655  00F7  0084               	movwf	4
   656  00F8  1383               	bcf	3,7	;select IRP bank0
   657  00F9  0800               	movf	0,w
   658  00FA  118A  21ED  118A   	fcall	_displayChar
   659                           
   660                           ;main.c: 263: delayms(700);
   661  00FD  30BC               	movlw	188
   662  00FE  1283               	bcf	3,5	;RP0=0, select bank0
   663  00FF  1303               	bcf	3,6	;RP1=0, select bank0
   664  0100  00AD               	movwf	delayms@ms
   665  0101  3002               	movlw	2
   666  0102  00AE               	movwf	delayms@ms+1
   667  0103  118A  221D  118A   	fcall	_delayms
   668  0106  3001               	movlw	1
   669  0107  1283               	bcf	3,5	;RP0=0, select bank0
   670  0108  1303               	bcf	3,6	;RP1=0, select bank0
   671  0109  00BD               	movwf	??_main
   672  010A  083D               	movf	??_main,w
   673  010B  07BF               	addwf	main@i,f
   674  010C  28F1               	goto	L1
   675  010D                     __end_of_main:	
   676                           
   677                           	psect	text1
   678  0163                     __ptext1:	
   679 ;; *************** function _spi_w *****************
   680 ;; Defined at:
   681 ;;		line 89 in file "main.c"
   682 ;; Parameters:    Size  Location     Type
   683 ;;  data            2   19[BANK0 ] unsigned int 
   684 ;; Auto vars:     Size  Location     Type
   685 ;;  byte2           1   28[BANK0 ] unsigned char 
   686 ;;  byte1           1   27[BANK0 ] unsigned char 
   687 ;;  ret2            1   26[BANK0 ] unsigned char 
   688 ;;  ret1            1   25[BANK0 ] unsigned char 
   689 ;; Return value:  Size  Location     Type
   690 ;;                  2   19[BANK0 ] unsigned int 
   691 ;; Registers used:
   692 ;;		wreg, status,2, status,0, btemp+1, pclath, cstack
   693 ;; Tracked objects:
   694 ;;		On entry : 0/0
   695 ;;		On exit  : 0/0
   696 ;;		Unchanged: 0/0
   697 ;; Data sizes:     COMMON   BANK0   BANK1   BANK2
   698 ;;      Params:         0       2       0       0
   699 ;;      Locals:         0       4       0       0
   700 ;;      Temps:          0       4       0       0
   701 ;;      Totals:         0      10       0       0
   702 ;;Total ram usage:       10 bytes
   703 ;; Hardware stack levels used:    1
   704 ;; Hardware stack levels required when called:    4
   705 ;; This function calls:
   706 ;;		_delayms
   707 ;; This function is called by:
   708 ;;		_main
   709 ;; This function uses a non-reentrant model
   710 ;;
   711                           
   712                           
   713                           ;psect for function _spi_w
   714  0163                     _spi_w:	
   715                           
   716                           ;main.c: 90: uchar ret1;
   717                           ;main.c: 91: uchar ret2;
   718                           ;main.c: 92: uchar byte1 = ((data & 0xFF00) >> 8);
   719                           
   720                           ;incstack = 0
   721                           ; Regs used in _spi_w: [wreg+status,2+status,0+btemp+1+pclath+cstack]
   722  0163  1283               	bcf	3,5	;RP0=0, select bank0
   723  0164  1303               	bcf	3,6	;RP1=0, select bank0
   724  0165  0834               	movf	spi_w@data+1,w
   725  0166  00B5               	movwf	??_spi_w
   726  0167  0835               	movf	??_spi_w,w
   727  0168  00BB               	movwf	spi_w@byte1
   728                           
   729                           ;main.c: 93: uchar byte2 = data & 0x00FF;
   730  0169  0833               	movf	spi_w@data,w
   731  016A  00B5               	movwf	??_spi_w
   732  016B  0835               	movf	??_spi_w,w
   733  016C  00BC               	movwf	spi_w@byte2
   734                           
   735                           ;main.c: 95: RC2=0;
   736  016D  1107               	bcf	7,2	;volatile
   737                           
   738                           ;main.c: 96: delayms(1);
   739  016E  3001               	movlw	1
   740  016F  00AD               	movwf	delayms@ms
   741  0170  3000               	movlw	0
   742  0171  00AE               	movwf	delayms@ms+1
   743  0172  118A  221D  118A   	fcall	_delayms
   744                           
   745                           ;main.c: 98: SSPBUF=byte1;
   746  0175  1283               	bcf	3,5	;RP0=0, select bank0
   747  0176  1303               	bcf	3,6	;RP1=0, select bank0
   748  0177  083B               	movf	spi_w@byte1,w
   749  0178  0093               	movwf	19	;volatile
   750  0179                     l69:	
   751                           ;main.c: 99: while (!SSPSTATbits.BF);
   752                           
   753  0179  1683               	bsf	3,5	;RP0=1, select bank1
   754  017A  1303               	bcf	3,6	;RP1=0, select bank1
   755  017B  1C14               	btfss	20,0	;volatile
   756  017C  2979               	goto	l69
   757                           
   758                           ;main.c: 100: ret1=SSPBUF;
   759  017D  1283               	bcf	3,5	;RP0=0, select bank0
   760  017E  1303               	bcf	3,6	;RP1=0, select bank0
   761  017F  0813               	movf	19,w	;volatile
   762  0180  00B5               	movwf	??_spi_w
   763  0181  0835               	movf	??_spi_w,w
   764  0182  00B9               	movwf	spi_w@ret1
   765                           
   766                           ;main.c: 102: SSPBUF=byte2;
   767  0183  083C               	movf	spi_w@byte2,w
   768  0184  0093               	movwf	19	;volatile
   769  0185                     l72:	
   770                           ;main.c: 103: while (!SSPSTATbits.BF);
   771                           
   772  0185  1683               	bsf	3,5	;RP0=1, select bank1
   773  0186  1303               	bcf	3,6	;RP1=0, select bank1
   774  0187  1C14               	btfss	20,0	;volatile
   775  0188  2985               	goto	l72
   776                           
   777                           ;main.c: 104: ret2=SSPBUF;
   778  0189  1283               	bcf	3,5	;RP0=0, select bank0
   779  018A  1303               	bcf	3,6	;RP1=0, select bank0
   780  018B  0813               	movf	19,w	;volatile
   781  018C  00B5               	movwf	??_spi_w
   782  018D  0835               	movf	??_spi_w,w
   783  018E  00BA               	movwf	spi_w@ret2
   784                           
   785                           ;main.c: 106: delayms(1);
   786  018F  3001               	movlw	1
   787  0190  00AD               	movwf	delayms@ms
   788  0191  3000               	movlw	0
   789  0192  00AE               	movwf	delayms@ms+1
   790  0193  118A  221D         	fcall	_delayms
   791                           
   792                           ;main.c: 107: RC2=1;
   793  0195  1283               	bcf	3,5	;RP0=0, select bank0
   794  0196  1303               	bcf	3,6	;RP1=0, select bank0
   795  0197  1507               	bsf	7,2	;volatile
   796                           
   797                           ;main.c: 109: return (ret1 << 8) | ret2;
   798  0198  083A               	movf	spi_w@ret2,w
   799  0199  00B5               	movwf	??_spi_w
   800  019A  01B6               	clrf	??_spi_w+1
   801  019B  0839               	movf	spi_w@ret1,w
   802  019C  00B7               	movwf	??_spi_w+2
   803  019D  01B8               	clrf	??_spi_w+3
   804  019E  0837               	movf	??_spi_w+2,w
   805  019F  00B8               	movwf	??_spi_w+3
   806  01A0  01B7               	clrf	??_spi_w+2
   807  01A1  0835               	movf	??_spi_w,w
   808  01A2  0437               	iorwf	??_spi_w+2,w
   809  01A3  00B3               	movwf	?_spi_w
   810  01A4  0836               	movf	??_spi_w+1,w
   811  01A5  0438               	iorwf	??_spi_w+3,w
   812  01A6  00B4               	movwf	?_spi_w+1
   813  01A7  0008               	return
   814  01A8                     __end_of_spi_w:	
   815                           
   816                           	psect	text2
   817  021D                     __ptext2:	
   818 ;; *************** function _delayms *****************
   819 ;; Defined at:
   820 ;;		line 51 in file "main.c"
   821 ;; Parameters:    Size  Location     Type
   822 ;;  ms              2   13[BANK0 ] unsigned int 
   823 ;; Auto vars:     Size  Location     Type
   824 ;;  cycles          2   17[BANK0 ] unsigned int 
   825 ;;  waitedms        2   15[BANK0 ] unsigned int 
   826 ;; Return value:  Size  Location     Type
   827 ;;		None               void
   828 ;; Registers used:
   829 ;;		wreg, status,2
   830 ;; Tracked objects:
   831 ;;		On entry : 0/0
   832 ;;		On exit  : 0/0
   833 ;;		Unchanged: 0/0
   834 ;; Data sizes:     COMMON   BANK0   BANK1   BANK2
   835 ;;      Params:         0       2       0       0
   836 ;;      Locals:         0       4       0       0
   837 ;;      Temps:          0       0       0       0
   838 ;;      Totals:         0       6       0       0
   839 ;;Total ram usage:        6 bytes
   840 ;; Hardware stack levels used:    1
   841 ;; Hardware stack levels required when called:    3
   842 ;; This function calls:
   843 ;;		Nothing
   844 ;; This function is called by:
   845 ;;		_spi_w
   846 ;;		_main
   847 ;;		_indicateByteSent
   848 ;; This function uses a non-reentrant model
   849 ;;
   850                           
   851                           
   852                           ;psect for function _delayms
   853  021D                     _delayms:	
   854                           
   855                           ;main.c: 52: uint waitedms = 0;
   856                           
   857                           ;incstack = 0
   858                           ; Regs used in _delayms: [wreg+status,2]
   859  021D  1283               	bcf	3,5	;RP0=0, select bank0
   860  021E  1303               	bcf	3,6	;RP1=0, select bank0
   861  021F  01AF               	clrf	delayms@waitedms
   862  0220  01B0               	clrf	delayms@waitedms+1
   863  0221                     l49:	
   864                           ;main.c: 53: while (waitedms < ms){
   865                           
   866  0221  082E               	movf	delayms@ms+1,w
   867  0222  0230               	subwf	delayms@waitedms+1,w
   868  0223  1D03               	skipz
   869  0224  2A27               	goto	u225
   870  0225  082D               	movf	delayms@ms,w
   871  0226  022F               	subwf	delayms@waitedms,w
   872  0227                     u225:	
   873  0227  1803               	btfsc	3,0
   874  0228  0008               	return
   875                           
   876                           ;main.c: 54: for(uint cycles = 0; cycles< 65; cycles++){
   877  0229  01B1               	clrf	delayms@cycles
   878  022A  01B2               	clrf	delayms@cycles+1
   879  022B  3000               	movlw	0
   880  022C  0232               	subwf	delayms@cycles+1,w
   881  022D  3041               	movlw	65
   882  022E  1903               	skipnz
   883  022F  0231               	subwf	delayms@cycles,w
   884  0230  1803               	btfsc	3,0
   885  0231  2A42               	goto	l771
   886  0232                     l51:	
   887                           
   888                           ;main.c: 55: __nop();
   889  0232  0000               	nop
   890  0233  3001               	movlw	1
   891  0234  1283               	bcf	3,5	;RP0=0, select bank0
   892  0235  1303               	bcf	3,6	;RP1=0, select bank0
   893  0236  07B1               	addwf	delayms@cycles,f
   894  0237  1803               	skipnc
   895  0238  0AB2               	incf	delayms@cycles+1,f
   896  0239  3000               	movlw	0
   897  023A  07B2               	addwf	delayms@cycles+1,f
   898  023B  3000               	movlw	0
   899  023C  0232               	subwf	delayms@cycles+1,w
   900  023D  3041               	movlw	65
   901  023E  1903               	skipnz
   902  023F  0231               	subwf	delayms@cycles,w
   903  0240  1C03               	skipc
   904  0241  2A32               	goto	l51
   905  0242                     l771:	
   906                           
   907                           ;main.c: 56: }
   908                           ;main.c: 57: waitedms++;
   909  0242  3001               	movlw	1
   910  0243  07AF               	addwf	delayms@waitedms,f
   911  0244  1803               	skipnc
   912  0245  0AB0               	incf	delayms@waitedms+1,f
   913  0246  3000               	movlw	0
   914  0247  07B0               	addwf	delayms@waitedms+1,f
   915  0248  2A21               	goto	l49
   916  0249                     __end_of_delayms:	
   917                           
   918                           	psect	text3
   919  01ED                     __ptext3:	
   920 ;; *************** function _displayChar *****************
   921 ;; Defined at:
   922 ;;		line 76 in file "main.c"
   923 ;; Parameters:    Size  Location     Type
   924 ;;  data            1    wreg     unsigned char 
   925 ;; Auto vars:     Size  Location     Type
   926 ;;  data            1   17[BANK0 ] unsigned char 
   927 ;;  lnib            1   16[BANK0 ] unsigned char 
   928 ;;  hnib            1   15[BANK0 ] unsigned char 
   929 ;; Return value:  Size  Location     Type
   930 ;;		None               void
   931 ;; Registers used:
   932 ;;		wreg, fsr0l, fsr0h, status,2, status,0
   933 ;; Tracked objects:
   934 ;;		On entry : 0/0
   935 ;;		On exit  : 0/0
   936 ;;		Unchanged: 0/0
   937 ;; Data sizes:     COMMON   BANK0   BANK1   BANK2
   938 ;;      Params:         0       0       0       0
   939 ;;      Locals:         0       3       0       0
   940 ;;      Temps:          0       2       0       0
   941 ;;      Totals:         0       5       0       0
   942 ;;Total ram usage:        5 bytes
   943 ;; Hardware stack levels used:    1
   944 ;; Hardware stack levels required when called:    3
   945 ;; This function calls:
   946 ;;		Nothing
   947 ;; This function is called by:
   948 ;;		_main
   949 ;; This function uses a non-reentrant model
   950 ;;
   951                           
   952                           
   953                           ;psect for function _displayChar
   954  01ED                     _displayChar:	
   955                           
   956                           ;incstack = 0
   957                           ; Regs used in _displayChar: [wreg-fsr0h+status,2+status,0]
   958                           ;displayChar@data stored from wreg
   959  01ED  1283               	bcf	3,5	;RP0=0, select bank0
   960  01EE  1303               	bcf	3,6	;RP1=0, select bank0
   961  01EF  00B1               	movwf	displayChar@data
   962                           
   963                           ;main.c: 77: uchar hnib = ((data & 0xF0) >> 4);
   964  01F0  0831               	movf	displayChar@data,w
   965  01F1  00AD               	movwf	??_displayChar
   966  01F2  3004               	movlw	4
   967  01F3                     u265:	
   968  01F3  1003               	clrc
   969  01F4  0CAD               	rrf	??_displayChar,f
   970  01F5  3EFF               	addlw	-1
   971  01F6  1D03               	skipz
   972  01F7  29F3               	goto	u265
   973  01F8  082D               	movf	??_displayChar,w
   974  01F9  390F               	andlw	15
   975  01FA  00AE               	movwf	??_displayChar+1
   976  01FB  082E               	movf	??_displayChar+1,w
   977  01FC  00AF               	movwf	displayChar@hnib
   978                           
   979                           ;main.c: 78: uchar lnib = data & 0x0F;
   980  01FD  0831               	movf	displayChar@data,w
   981  01FE  390F               	andlw	15
   982  01FF  00AD               	movwf	??_displayChar
   983  0200  082D               	movf	??_displayChar,w
   984  0201  00B0               	movwf	displayChar@lnib
   985                           
   986                           ;main.c: 80: RC0 = 1;
   987  0202  1407               	bsf	7,0	;volatile
   988                           
   989                           ;main.c: 81: SSPBUF = characters[lnib];
   990  0203  0830               	movf	displayChar@lnib,w
   991  0204  3E40               	addlw	_characters& (0+255)
   992  0205  0084               	movwf	4
   993  0206  1383               	bcf	3,7	;select IRP bank0
   994  0207  0800               	movf	0,w
   995  0208  0093               	movwf	19	;volatile
   996  0209                     l60:	
   997                           ;main.c: 82: while (!SSPSTATbits.BF);
   998                           
   999  0209  1683               	bsf	3,5	;RP0=1, select bank1
  1000  020A  1303               	bcf	3,6	;RP1=0, select bank1
  1001  020B  1C14               	btfss	20,0	;volatile
  1002  020C  2A09               	goto	l60
  1003                           
  1004                           ;main.c: 83: SSPBUF = characters[hnib];
  1005  020D  1283               	bcf	3,5	;RP0=0, select bank0
  1006  020E  1303               	bcf	3,6	;RP1=0, select bank0
  1007  020F  082F               	movf	displayChar@hnib,w
  1008  0210  3E40               	addlw	_characters& (0+255)
  1009  0211  0084               	movwf	4
  1010  0212  1383               	bcf	3,7	;select IRP bank0
  1011  0213  0800               	movf	0,w
  1012  0214  0093               	movwf	19	;volatile
  1013  0215                     l63:	
  1014                           ;main.c: 84: while (!SSPSTATbits.BF);
  1015                           
  1016  0215  1683               	bsf	3,5	;RP0=1, select bank1
  1017  0216  1303               	bcf	3,6	;RP1=0, select bank1
  1018  0217  1C14               	btfss	20,0	;volatile
  1019  0218  2A15               	goto	l63
  1020                           
  1021                           ;main.c: 85: RC0 = 0;
  1022  0219  1283               	bcf	3,5	;RP0=0, select bank0
  1023  021A  1303               	bcf	3,6	;RP1=0, select bank0
  1024  021B  1007               	bcf	7,0	;volatile
  1025  021C  0008               	return
  1026  021D                     __end_of_displayChar:	
  1027                           
  1028                           	psect	text4
  1029  010D                     __ptext4:	
  1030 ;; *************** function _ISR *****************
  1031 ;; Defined at:
  1032 ;;		line 129 in file "main.c"
  1033 ;; Parameters:    Size  Location     Type
  1034 ;;		None
  1035 ;; Auto vars:     Size  Location     Type
  1036 ;;  data1           2   11[BANK0 ] unsigned int 
  1037 ;;  status          2    9[BANK0 ] unsigned int 
  1038 ;; Return value:  Size  Location     Type
  1039 ;;		None               void
  1040 ;; Registers used:
  1041 ;;		wreg, fsr0l, fsr0h, status,2, status,0, btemp+1, pclath, cstack
  1042 ;; Tracked objects:
  1043 ;;		On entry : 0/0
  1044 ;;		On exit  : 0/0
  1045 ;;		Unchanged: 0/0
  1046 ;; Data sizes:     COMMON   BANK0   BANK1   BANK2
  1047 ;;      Params:         0       0       0       0
  1048 ;;      Locals:         0       4       0       0
  1049 ;;      Temps:          0       5       0       0
  1050 ;;      Totals:         0       9       0       0
  1051 ;;Total ram usage:        9 bytes
  1052 ;; Hardware stack levels used:    1
  1053 ;; Hardware stack levels required when called:    2
  1054 ;; This function calls:
  1055 ;;		i1_spi_w
  1056 ;; This function is called by:
  1057 ;;		Interrupt level 1
  1058 ;; This function uses a non-reentrant model
  1059 ;;
  1060                           
  1061                           
  1062                           ;psect for function _ISR
  1063  010D                     _ISR:	
  1064                           
  1065                           ;main.c: 130: if(RABIF ) {
  1066  010D  1C0B               	btfss	11,0	;volatile
  1067  010E  2956               	goto	i1l82
  1068                           
  1069                           ;main.c: 131: uint status = spi_w(0x0000);
  1070  010F  3000               	movlw	0
  1071  0110  00F6               	movwf	i1spi_w@data
  1072  0111  3000               	movlw	0
  1073  0112  00F7               	movwf	i1spi_w@data+1
  1074  0113  118A  21A8  118A   	fcall	i1_spi_w
  1075  0116  0877               	movf	?i1_spi_w+1,w
  1076  0117  1283               	bcf	3,5	;RP0=0, select bank0
  1077  0118  1303               	bcf	3,6	;RP1=0, select bank0
  1078  0119  01AA               	clrf	ISR@status+1
  1079  011A  07AA               	addwf	ISR@status+1,f
  1080  011B  0876               	movf	?i1_spi_w,w
  1081  011C  01A9               	clrf	ISR@status
  1082  011D  07A9               	addwf	ISR@status,f
  1083                           
  1084                           ;main.c: 133: if (status & 0x8000) {
  1085  011E  1FAA               	btfss	ISR@status+1,7
  1086  011F  2955               	goto	i1l879
  1087                           
  1088                           ;main.c: 134: uint data1 = spi_w(0xB000) & 0x00FF;
  1089  0120  3000               	movlw	0
  1090  0121  00F6               	movwf	i1spi_w@data
  1091  0122  30B0               	movlw	176
  1092  0123  00F7               	movwf	i1spi_w@data+1
  1093  0124  118A  21A8  118A   	fcall	i1_spi_w
  1094  0127  30FF               	movlw	255
  1095  0128  0576               	andwf	?i1_spi_w,w
  1096  0129  1283               	bcf	3,5	;RP0=0, select bank0
  1097  012A  1303               	bcf	3,6	;RP1=0, select bank0
  1098  012B  00AB               	movwf	ISR@data1
  1099  012C  3000               	movlw	0
  1100  012D  0577               	andwf	?i1_spi_w+1,w
  1101  012E  00AC               	movwf	ISR@data1+1
  1102                           
  1103                           ;main.c: 136: if (ringbufferpos == 0){
  1104  012F  08D7               	movf	_ringbufferpos,f
  1105  0130  1903               	btfsc	3,2
  1106                           
  1107                           ;main.c: 137: maxbytes=0;
  1108  0131  01D6               	clrf	_maxbytes
  1109                           
  1110                           ;main.c: 138: }
  1111                           ;main.c: 140: maxbytes++;
  1112  0132  3001               	movlw	1
  1113  0133  00A4               	movwf	??_ISR
  1114  0134  0824               	movf	??_ISR,w
  1115  0135  07D6               	addwf	_maxbytes,f
  1116                           
  1117                           ;main.c: 142: ringbuffer[ringbufferpos] = data1;
  1118  0136  082B               	movf	ISR@data1,w
  1119  0137  00A4               	movwf	??_ISR
  1120  0138  0857               	movf	_ringbufferpos,w
  1121  0139  3E50               	addlw	_ringbuffer& (0+255)
  1122  013A  0084               	movwf	4
  1123  013B  0824               	movf	??_ISR,w
  1124  013C  1383               	bcf	3,7	;select IRP bank0
  1125  013D  0080               	movwf	0
  1126                           
  1127                           ;main.c: 143: ringbufferpos++;
  1128  013E  3001               	movlw	1
  1129  013F  00A4               	movwf	??_ISR
  1130  0140  0824               	movf	??_ISR,w
  1131  0141  07D7               	addwf	_ringbufferpos,f
  1132                           
  1133                           ;main.c: 144: if (ringbufferpos == 6){
  1134  0142  0857               	movf	_ringbufferpos,w
  1135  0143  3A06               	xorlw	6
  1136  0144  1D03               	skipz
  1137  0145  2955               	goto	i1l879
  1138                           
  1139                           ;main.c: 145: ringbufferpos = 0;
  1140  0146  01D7               	clrf	_ringbufferpos
  1141                           
  1142                           ;main.c: 146: spi_w(0xCA81);
  1143  0147  3081               	movlw	129
  1144  0148  00F6               	movwf	i1spi_w@data
  1145  0149  30CA               	movlw	202
  1146  014A  00F7               	movwf	i1spi_w@data+1
  1147  014B  118A  21A8  118A   	fcall	i1_spi_w
  1148                           
  1149                           ;main.c: 147: spi_w(0xCA83);
  1150  014E  3083               	movlw	131
  1151  014F  00F6               	movwf	i1spi_w@data
  1152  0150  30CA               	movlw	202
  1153  0151  00F7               	movwf	i1spi_w@data+1
  1154  0152  118A  21A8  118A   	fcall	i1_spi_w
  1155  0155                     i1l879:	
  1156                           
  1157                           ;main.c: 148: }
  1158                           ;main.c: 156: }
  1159                           ;main.c: 157: RABIF=0;
  1160  0155  100B               	bcf	11,0	;volatile
  1161  0156                     i1l82:	
  1162  0156  1283               	bcf	3,5	;RP0=0, select bank0
  1163  0157  1303               	bcf	3,6	;RP1=0, select bank0
  1164  0158  0828               	movf	??_ISR+4,w
  1165  0159  00FF               	movwf	127
  1166  015A  0827               	movf	??_ISR+3,w
  1167  015B  008A               	movwf	10
  1168  015C  0826               	movf	??_ISR+2,w
  1169  015D  0084               	movwf	4
  1170  015E  0E25               	swapf	(??_ISR+1)^0,w
  1171  015F  0083               	movwf	3
  1172  0160  0EFE               	swapf	126,f
  1173  0161  0E7E               	swapf	126,w
  1174  0162  0009               	retfie
  1175  0163                     __end_of_ISR:	
  1176                           
  1177                           	psect	intentry
  1178  0004                     __pintentry:	
  1179                           ;incstack = 0
  1180                           ; Regs used in _ISR: [wreg-fsr0h+status,2+status,0+btemp+1+pclath+cstack]
  1181                           
  1182  0004                     interrupt_function:	
  1183  007E                     saved_w	set	btemp
  1184  0004  00FE               	movwf	btemp
  1185  0005  0E03               	swapf	3,w
  1186  0006  1283               	bcf	3,5	;RP0=0, select bank0
  1187  0007  1303               	bcf	3,6	;RP1=0, select bank0
  1188  0008  00A5               	movwf	??_ISR+1
  1189  0009  0804               	movf	4,w
  1190  000A  00A6               	movwf	??_ISR+2
  1191  000B  080A               	movf	10,w
  1192  000C  00A7               	movwf	??_ISR+3
  1193  000D  087F               	movf	btemp+1,w
  1194  000E  00A8               	movwf	??_ISR+4
  1195  000F  118A  290D         	ljmp	_ISR
  1196                           
  1197                           	psect	text5
  1198  01A8                     __ptext5:	
  1199 ;; *************** function i1_spi_w *****************
  1200 ;; Defined at:
  1201 ;;		line 89 in file "main.c"
  1202 ;; Parameters:    Size  Location     Type
  1203 ;;  data            2    6[COMMON] unsigned int 
  1204 ;; Auto vars:     Size  Location     Type
  1205 ;;  spi_w           1    3[BANK0 ] unsigned char 
  1206 ;;  spi_w           1    2[BANK0 ] unsigned char 
  1207 ;;  spi_w           1    1[BANK0 ] unsigned char 
  1208 ;;  spi_w           1    0[BANK0 ] unsigned char 
  1209 ;; Return value:  Size  Location     Type
  1210 ;;                  2    6[COMMON] unsigned int 
  1211 ;; Registers used:
  1212 ;;		wreg, status,2, status,0, btemp+1, pclath, cstack
  1213 ;; Tracked objects:
  1214 ;;		On entry : 0/0
  1215 ;;		On exit  : 0/0
  1216 ;;		Unchanged: 0/0
  1217 ;; Data sizes:     COMMON   BANK0   BANK1   BANK2
  1218 ;;      Params:         2       0       0       0
  1219 ;;      Locals:         0       4       0       0
  1220 ;;      Temps:          4       0       0       0
  1221 ;;      Totals:         6       4       0       0
  1222 ;;Total ram usage:       10 bytes
  1223 ;; Hardware stack levels used:    1
  1224 ;; Hardware stack levels required when called:    1
  1225 ;; This function calls:
  1226 ;;		i1_delayms
  1227 ;; This function is called by:
  1228 ;;		_ISR
  1229 ;; This function uses a non-reentrant model
  1230 ;;
  1231                           
  1232                           
  1233                           ;psect for function i1_spi_w
  1234  01A8                     i1_spi_w:	
  1235                           
  1236                           ;main.c: 90: uchar ret1;
  1237                           ;main.c: 91: uchar ret2;
  1238                           ;main.c: 92: uchar byte1 = ((data & 0xFF00) >> 8);
  1239                           
  1240                           ;incstack = 0
  1241                           ; Regs used in i1_spi_w: [wreg+status,2+status,0+btemp+1+pclath+cstack]
  1242  01A8  0877               	movf	i1spi_w@data+1,w
  1243  01A9  00F8               	movwf	??i1_spi_w
  1244  01AA  0878               	movf	??i1_spi_w,w
  1245  01AB  1283               	bcf	3,5	;RP0=0, select bank0
  1246  01AC  1303               	bcf	3,6	;RP1=0, select bank0
  1247  01AD  00A2               	movwf	i1spi_w@byte1
  1248                           
  1249                           ;main.c: 93: uchar byte2 = data & 0x00FF;
  1250  01AE  0876               	movf	i1spi_w@data,w
  1251  01AF  00F8               	movwf	??i1_spi_w
  1252  01B0  0878               	movf	??i1_spi_w,w
  1253  01B1  00A3               	movwf	i1spi_w@byte2
  1254                           
  1255                           ;main.c: 95: RC2=0;
  1256  01B2  1107               	bcf	7,2	;volatile
  1257                           
  1258                           ;main.c: 96: delayms(1);
  1259  01B3  3001               	movlw	1
  1260  01B4  00F0               	movwf	i1delayms@ms
  1261  01B5  3000               	movlw	0
  1262  01B6  00F1               	movwf	i1delayms@ms+1
  1263  01B7  118A  2249  118A   	fcall	i1_delayms
  1264                           
  1265                           ;main.c: 98: SSPBUF=byte1;
  1266  01BA  1283               	bcf	3,5	;RP0=0, select bank0
  1267  01BB  1303               	bcf	3,6	;RP1=0, select bank0
  1268  01BC  0822               	movf	i1spi_w@byte1,w
  1269  01BD  0093               	movwf	19	;volatile
  1270  01BE                     i1l69:	
  1271                           ;main.c: 99: while (!SSPSTATbits.BF);
  1272                           
  1273  01BE  1683               	bsf	3,5	;RP0=1, select bank1
  1274  01BF  1303               	bcf	3,6	;RP1=0, select bank1
  1275  01C0  1C14               	btfss	20,0	;volatile
  1276  01C1  29BE               	goto	i1l69
  1277                           
  1278                           ;main.c: 100: ret1=SSPBUF;
  1279  01C2  1283               	bcf	3,5	;RP0=0, select bank0
  1280  01C3  1303               	bcf	3,6	;RP1=0, select bank0
  1281  01C4  0813               	movf	19,w	;volatile
  1282  01C5  00F8               	movwf	??i1_spi_w
  1283  01C6  0878               	movf	??i1_spi_w,w
  1284  01C7  00A0               	movwf	i1spi_w@ret1
  1285                           
  1286                           ;main.c: 102: SSPBUF=byte2;
  1287  01C8  0823               	movf	i1spi_w@byte2,w
  1288  01C9  0093               	movwf	19	;volatile
  1289  01CA                     i1l72:	
  1290                           ;main.c: 103: while (!SSPSTATbits.BF);
  1291                           
  1292  01CA  1683               	bsf	3,5	;RP0=1, select bank1
  1293  01CB  1303               	bcf	3,6	;RP1=0, select bank1
  1294  01CC  1C14               	btfss	20,0	;volatile
  1295  01CD  29CA               	goto	i1l72
  1296                           
  1297                           ;main.c: 104: ret2=SSPBUF;
  1298  01CE  1283               	bcf	3,5	;RP0=0, select bank0
  1299  01CF  1303               	bcf	3,6	;RP1=0, select bank0
  1300  01D0  0813               	movf	19,w	;volatile
  1301  01D1  00F8               	movwf	??i1_spi_w
  1302  01D2  0878               	movf	??i1_spi_w,w
  1303  01D3  00A1               	movwf	i1spi_w@ret2
  1304                           
  1305                           ;main.c: 106: delayms(1);
  1306  01D4  3001               	movlw	1
  1307  01D5  00F0               	movwf	i1delayms@ms
  1308  01D6  3000               	movlw	0
  1309  01D7  00F1               	movwf	i1delayms@ms+1
  1310  01D8  118A  2249         	fcall	i1_delayms
  1311                           
  1312                           ;main.c: 107: RC2=1;
  1313  01DA  1283               	bcf	3,5	;RP0=0, select bank0
  1314  01DB  1303               	bcf	3,6	;RP1=0, select bank0
  1315  01DC  1507               	bsf	7,2	;volatile
  1316                           
  1317                           ;main.c: 109: return (ret1 << 8) | ret2;
  1318  01DD  0821               	movf	i1spi_w@ret2,w
  1319  01DE  00F8               	movwf	??i1_spi_w
  1320  01DF  01F9               	clrf	??i1_spi_w+1
  1321  01E0  0820               	movf	i1spi_w@ret1,w
  1322  01E1  00FA               	movwf	??i1_spi_w+2
  1323  01E2  01FB               	clrf	??i1_spi_w+3
  1324  01E3  087A               	movf	??i1_spi_w+2,w
  1325  01E4  00FB               	movwf	??i1_spi_w+3
  1326  01E5  01FA               	clrf	??i1_spi_w+2
  1327  01E6  0878               	movf	??i1_spi_w,w
  1328  01E7  047A               	iorwf	??i1_spi_w+2,w
  1329  01E8  00F6               	movwf	?i1_spi_w
  1330  01E9  0879               	movf	??i1_spi_w+1,w
  1331  01EA  047B               	iorwf	??i1_spi_w+3,w
  1332  01EB  00F7               	movwf	?i1_spi_w+1
  1333  01EC  0008               	return
  1334  01ED                     __end_ofi1_spi_w:	
  1335                           
  1336                           	psect	text6
  1337  0249                     __ptext6:	
  1338 ;; *************** function i1_delayms *****************
  1339 ;; Defined at:
  1340 ;;		line 51 in file "main.c"
  1341 ;; Parameters:    Size  Location     Type
  1342 ;;  ms              2    0[COMMON] unsigned int 
  1343 ;; Auto vars:     Size  Location     Type
  1344 ;;  delayms         2    4[COMMON] unsigned int 
  1345 ;;  delayms         2    2[COMMON] unsigned int 
  1346 ;; Return value:  Size  Location     Type
  1347 ;;		None               void
  1348 ;; Registers used:
  1349 ;;		wreg, status,2
  1350 ;; Tracked objects:
  1351 ;;		On entry : 0/0
  1352 ;;		On exit  : 0/0
  1353 ;;		Unchanged: 0/0
  1354 ;; Data sizes:     COMMON   BANK0   BANK1   BANK2
  1355 ;;      Params:         2       0       0       0
  1356 ;;      Locals:         4       0       0       0
  1357 ;;      Temps:          0       0       0       0
  1358 ;;      Totals:         6       0       0       0
  1359 ;;Total ram usage:        6 bytes
  1360 ;; Hardware stack levels used:    1
  1361 ;; This function calls:
  1362 ;;		Nothing
  1363 ;; This function is called by:
  1364 ;;		i1_spi_w
  1365 ;; This function uses a non-reentrant model
  1366 ;;
  1367                           
  1368                           
  1369                           ;psect for function i1_delayms
  1370  0249                     i1_delayms:	
  1371                           
  1372                           ;main.c: 52: uint waitedms = 0;
  1373                           
  1374                           ;incstack = 0
  1375                           ; Regs used in i1_delayms: [wreg+status,2]
  1376  0249  01F2               	clrf	i1delayms@waitedms
  1377  024A  01F3               	clrf	i1delayms@waitedms+1
  1378  024B                     i1l49:	
  1379                           ;main.c: 53: while (waitedms < ms){
  1380                           
  1381  024B  0871               	movf	i1delayms@ms+1,w
  1382  024C  0273               	subwf	i1delayms@waitedms+1,w
  1383  024D  1D03               	skipz
  1384  024E  2A51               	goto	u25_25
  1385  024F  0870               	movf	i1delayms@ms,w
  1386  0250  0272               	subwf	i1delayms@waitedms,w
  1387  0251                     u25_25:	
  1388  0251  1803               	btfsc	3,0
  1389  0252  0008               	return
  1390                           
  1391                           ;main.c: 54: for(uint cycles = 0; cycles< 65; cycles++){
  1392  0253  01F4               	clrf	i1delayms@cycles
  1393  0254  01F5               	clrf	i1delayms@cycles+1
  1394  0255  3000               	movlw	0
  1395  0256  0275               	subwf	i1delayms@cycles+1,w
  1396  0257  3041               	movlw	65
  1397  0258  1903               	skipnz
  1398  0259  0274               	subwf	i1delayms@cycles,w
  1399  025A  1803               	btfsc	3,0
  1400  025B  2A6A               	goto	i1l783
  1401  025C                     i1l51:	
  1402                           
  1403                           ;main.c: 55: __nop();
  1404  025C  0000               	nop
  1405  025D  3001               	movlw	1
  1406  025E  07F4               	addwf	i1delayms@cycles,f
  1407  025F  1803               	skipnc
  1408  0260  0AF5               	incf	i1delayms@cycles+1,f
  1409  0261  3000               	movlw	0
  1410  0262  07F5               	addwf	i1delayms@cycles+1,f
  1411  0263  3000               	movlw	0
  1412  0264  0275               	subwf	i1delayms@cycles+1,w
  1413  0265  3041               	movlw	65
  1414  0266  1903               	skipnz
  1415  0267  0274               	subwf	i1delayms@cycles,w
  1416  0268  1C03               	skipc
  1417  0269  2A5C               	goto	i1l51
  1418  026A                     i1l783:	
  1419                           
  1420                           ;main.c: 56: }
  1421                           ;main.c: 57: waitedms++;
  1422  026A  3001               	movlw	1
  1423  026B  07F2               	addwf	i1delayms@waitedms,f
  1424  026C  1803               	skipnc
  1425  026D  0AF3               	incf	i1delayms@waitedms+1,f
  1426  026E  3000               	movlw	0
  1427  026F  07F3               	addwf	i1delayms@waitedms+1,f
  1428  0270  2A4B               	goto	i1l49
  1429  0271                     __end_ofi1_delayms:	
  1430  007E                     btemp	set	126	;btemp
  1431  007E                     wtemp	set	126
  1432  007E                     wtemp0	set	126
  1433  0080                     wtemp1	set	128
  1434  0082                     wtemp2	set	130
  1435  0084                     wtemp3	set	132
  1436  0086                     wtemp4	set	134
  1437  0088                     wtemp5	set	136
  1438  007F                     wtemp6	set	127
  1439  007E                     ttemp	set	126
  1440  007E                     ttemp0	set	126
  1441  0081                     ttemp1	set	129
  1442  0084                     ttemp2	set	132
  1443  0087                     ttemp3	set	135
  1444  007F                     ttemp4	set	127
  1445  007E                     ltemp	set	126
  1446  007E                     ltemp0	set	126
  1447  0082                     ltemp1	set	130
  1448  0086                     ltemp2	set	134
  1449  0080                     ltemp3	set	128


Data Sizes:
    Strings     0
    Constant    0
    Data        16
    BSS         8
    Persistent  0
    Stack       0

Auto Spaces:
    Space          Size  Autos    Used
    COMMON           14     12      12
    BANK0            80     32      56
    BANK1            80      0       0
    BANK2            80      0       0

Pointer List with Targets:

    None.

Critical Paths under _main in COMMON

    None.

Critical Paths under _ISR in COMMON

    _ISR->i1_spi_w
    i1_spi_w->i1_delayms

Critical Paths under _main in BANK0

    _main->_spi_w
    _spi_w->_delayms

Critical Paths under _ISR in BANK0

    _ISR->i1_spi_w

Critical Paths under _main in BANK1

    None.

Critical Paths under _ISR in BANK1

    None.

Critical Paths under _main in BANK2

    None.

Critical Paths under _ISR in BANK2

    None.

Call Graph Tables:

 ---------------------------------------------------------------------------------
 (Depth) Function   	        Calls       Base Space   Used Autos Params    Refs
 ---------------------------------------------------------------------------------
 (0) _main                                                 3     3      0    2358
                                             29 BANK0      3     3      0
                            _delayms
                        _displayChar
                              _spi_w
 ---------------------------------------------------------------------------------
 (1) _spi_w                                               10     8      2    1608
                                             19 BANK0     10     8      2
                            _delayms
 ---------------------------------------------------------------------------------
 (2) _delayms                                              6     4      2     569
                                             13 BANK0      6     4      2
 ---------------------------------------------------------------------------------
 (1) _displayChar                                          5     5      0      90
                                             13 BANK0      5     5      0
 ---------------------------------------------------------------------------------
 Estimated maximum stack depth 2
 ---------------------------------------------------------------------------------
 (Depth) Function   	        Calls       Base Space   Used Autos Params    Refs
 ---------------------------------------------------------------------------------
 (3) _ISR                                                  9     9      0     430
                                              4 BANK0      9     9      0
                            i1_spi_w
 ---------------------------------------------------------------------------------
 (4) i1_spi_w                                             10     8      2     384
                                              6 COMMON     6     4      2
                                              0 BANK0      4     4      0
                          i1_delayms
 ---------------------------------------------------------------------------------
 (5) i1_delayms                                            6     4      2     144
                                              0 COMMON     6     4      2
 ---------------------------------------------------------------------------------
 Estimated maximum stack depth 5
 ---------------------------------------------------------------------------------

 Call Graph Graphs:

 _main (ROOT)
   _delayms
   _displayChar
   _spi_w
     _delayms

 _ISR (ROOT)
   i1_spi_w
     i1_delayms

 Address spaces:
Name               Size   Autos  Total    Cost      Usage
SFR3                 0      0       0       4        0.0%
BITSFR3              0      0       0       4        0.0%
BANK2               50      0       0       7        0.0%
BITBANK2            50      0       0       6        0.0%
SFR2                 0      0       0       5        0.0%
BITSFR2              0      0       0       5        0.0%
BANK1               50      0       0       5        0.0%
BITBANK1            50      0       0       4        0.0%
SFR1                 0      0       0       2        0.0%
BITSFR1              0      0       0       2        0.0%
BANK0               50     20      38       3       70.0%
BITBANK0            50      0       0       9        0.0%
SFR0                 0      0       0       1        0.0%
BITSFR0              0      0       0       1        0.0%
COMMON               E      C       C       1       85.7%
BITCOMMON            E      0       0       0        0.0%
CODE                 0      0       0       0        0.0%
DATA                 0      0      44      10        0.0%
ABS                  0      0      44       8        0.0%
NULL                 0      0       0       0        0.0%
STACK                0      0       0       2        0.0%
EEDATA             100      0       0       0        0.0%


Microchip Technology PIC Macro Assembler V1.31 build 56723 
Symbol Table                                                                                   Sun Jun 22 01:28:54 2014

                      pc 0002             ?_displayChar 0070              __CFG_CP$OFF 0000  
            _SSPSTATbits 0094                       l51 0232                       l60 0209  
                     l63 0215                       l72 0185                       l49 0221  
                     l69 0179                       fsr 0004                      l771 0242  
                    l953 00DD                      _GIE 005F                      _RC0 0038  
                    _RC1 0039                      _RC2 003A                      u225 0227  
                    u265 01F3             __CFG_CPD$OFF 0000                      _ISR 010D  
                    fsr0 0004                      indf 0000             __CFG_IESO$ON 0000  
                   ?_ISR 0070                     i1l51 025C                     i1l72 01CA  
                   i1l49 024B                     i1l82 0156                     i1l69 01BE  
          __CFG_FCMEN$ON 0000                     _main 0029                     btemp 007E  
          __CFG_BOREN$ON 0000                     ltemp 007E                     start 0011  
                   ttemp 007E                     wtemp 007E          __end_ofi1_spi_w 01ED  
          __CFG_MCLRE$ON 0000                    ??_ISR 0024                    ?_main 0070  
          __CFG_WDTE$OFF 0000                    _ANSEL 011E                    _IOCA2 04B2  
                  _RABIE 005B                    _RABIF 0058                    i1l783 026A  
                  i1l879 0155                    u25_25 0251                    _SSPEN 00A5  
        __end_of_delayms 0249              i1delayms@ms 0070                    _spi_w 0163  
                  main@i 003F                    pclath 000A                    ltemp0 007E  
                  ltemp1 0082                    ltemp2 0086                    ltemp3 0080  
                  ttemp0 007E                    ttemp1 0081                    ttemp2 0084  
                  ttemp3 0087                    ttemp4 007F                    status 0003  
                  wtemp0 007E                    wtemp1 0080                    wtemp2 0082  
                  wtemp3 0084                    wtemp4 0086                    wtemp5 0088  
                  wtemp6 007F       __size_ofi1_delayms 0028          __initialization 0013  
           __end_of_main 010D                   ??_main 003D                   ?_spi_w 0033  
                 _ANSELH 011F                   _INTEDG 040E                ??i1_spi_w 0078  
                 _SSPCON 0014                   _SSPBUF 0013           __CFG_PWRTE$OFF 0000  
              ??_delayms 002F     __size_of_displayChar 0030                   saved_w 007E  
      __end_ofi1_delayms 0271  __end_of__initialization 0026              i1spi_w@data 0076  
            i1spi_w@ret1 0020              i1spi_w@ret2 0021           __pcstackCOMMON 0070  
           __pidataBANK0 0271            __end_of_spi_w 01A8                  ??_spi_w 0035  
             __pbssBANK0 0050               _characters 0040                ISR@status 0029  
             __pmaintext 0029               __pintentry 0004          delayms@waitedms 002F  
                _SSPSTAT 0094                  i1_spi_w 01A8                  _delayms 021D  
                __ptext1 0163                  __ptext2 021D                  __ptext3 01ED  
                __ptext4 010D                  __ptext5 01A8                  __ptext6 0249  
           __size_of_ISR 0056     end_of_initialization 0026               _ringbuffer 0050  
              _TRISAbits 0085                _TRISBbits 0086                _TRISCbits 0087  
              i1_delayms 0249               main@answer 003E             i1spi_w@byte1 0022  
           i1spi_w@byte2 0023            ??_displayChar 002D      start_initialization 0013  
            __end_of_ISR 0163               ?i1_delayms 0070            delayms@cycles 0031  
             init_fetch0 0281              __pdataBANK0 0040      __end_of_displayChar 021D  
              ___latbits 0001            __pcstackBANK0 0020                 ?i1_spi_w 0076  
               ISR@data1 002B                 ?_delayms 002D           __size_of_spi_w 0045  
            ??i1_delayms 0072        interrupt_function 0004                delayms@ms 002D  
        i1delayms@cycles 0074              _displayChar 01ED            _ringbufferpos 0057  
             spi_w@byte1 003B               spi_w@byte2 003C         __size_ofi1_spi_w 0045  
        displayChar@data 0031          displayChar@hnib 002F          displayChar@lnib 0030  
       __size_of_delayms 002C            __size_of_main 00E4                 _maxbytes 0056  
              spi_w@data 0033                spi_w@ret1 0039                spi_w@ret2 003A  
               init_ram0 0285                 intlevel1 0000        i1delayms@waitedms 0072  
     __CFG_FOSC$EXTRCCLK 0000  
